target datalayout = "e-m:e-p270:32:32-p271:32:32-p272:64:64-i64:64-i128:128-f80:128-n8:16:32:64-S128"
target triple = "x86_64-pc-linux-gnu"

%struct.evp_pkey_st = type { i32, i32, ptr, ptr, ptr, %union.legacy_pkey_st, %union.legacy_pkey_st, %struct.CRYPTO_REF_COUNT, ptr, ptr, i32, i8, %struct.crypto_ex_data_st, ptr, ptr, i64, ptr, i64, %struct.anon }
%union.legacy_pkey_st = type { ptr }
%struct.CRYPTO_REF_COUNT = type { i32 }
%struct.crypto_ex_data_st = type { ptr, ptr }
%struct.anon = type { i32, i32, i32 }
%struct.evp_pkey_asn1_method_st = type { i32, i32, i64, ptr, ptr, ptr, ptr, ptr, ptr, ptr, ptr, ptr, ptr, ptr, ptr, ptr, ptr, ptr, ptr, ptr, ptr, ptr, ptr, ptr, ptr, ptr, ptr, ptr, ptr, ptr, ptr, ptr, ptr, ptr, ptr, ptr, ptr, ptr, ptr, ptr, ptr }
%struct.evp_keymgmt_st = type { i32, i32, i32, ptr, ptr, ptr, %struct.CRYPTO_REF_COUNT, ptr, ptr, ptr, ptr, ptr, ptr, ptr, ptr, ptr, ptr, ptr, ptr, ptr, ptr, ptr, ptr, ptr, ptr, ptr, ptr, ptr, ptr, ptr, ptr, ptr, ptr }

; Function Attrs: nounwind uwtable
define i32 @EVP_PKEY_type(i32 noundef %0) #0 {
  %2 = alloca i32, align 4
  %3 = alloca i32, align 4
  %4 = alloca ptr, align 8
  %5 = alloca ptr, align 8
  store i32 %0, ptr %2, align 4, !tbaa !8
  call void @llvm.lifetime.start.p0(i64 4, ptr %3) #8
  call void @llvm.lifetime.start.p0(i64 8, ptr %4) #8
  call void @llvm.lifetime.start.p0(i64 8, ptr %5) #8
  %6 = load i32, ptr %2, align 4, !tbaa !8
  %7 = call ptr @EVP_PKEY_asn1_find(ptr noundef %5, i32 noundef %6)
  store ptr %7, ptr %4, align 8, !tbaa !70
  %8 = load ptr, ptr %4, align 8, !tbaa !70
  %9 = icmp ne ptr %8, null
  br i1 %9, label %10, label %14

10:                                               ; preds = %1
  %11 = load ptr, ptr %4, align 8, !tbaa !70
  %12 = getelementptr inbounds nuw %struct.evp_pkey_asn1_method_st, ptr %11, i32 0, i32 0
  %13 = load i32, ptr %12, align 8, !tbaa !94
  store i32 %13, ptr %3, align 4, !tbaa !8
  br label %15

14:                                               ; preds = %1
  store i32 0, ptr %3, align 4, !tbaa !8
  br label %15

15:                                               ; preds = %14, %10
  %16 = load ptr, ptr %5, align 8, !tbaa !69
  %17 = call i32 @ENGINE_finish(ptr noundef %16)
  %18 = load i32, ptr %3, align 4, !tbaa !8
  call void @llvm.lifetime.end.p0(i64 8, ptr %5) #8
  call void @llvm.lifetime.end.p0(i64 8, ptr %4) #8
  call void @llvm.lifetime.end.p0(i64 4, ptr %3) #8
  ret i32 %18
}

; Function Attrs: nounwind uwtable
define i32 @EVP_PKEY_get_base_id(ptr noundef %0) #0 {
  %2 = alloca ptr, align 8
  store ptr %0, ptr %2, align 8, !tbaa !3
  %3 = load ptr, ptr %2, align 8, !tbaa !3
  %4 = getelementptr inbounds nuw %struct.evp_pkey_st, ptr %3, i32 0, i32 0
  %5 = load i32, ptr %4, align 8, !tbaa !29
  %6 = call i32 @EVP_PKEY_type(i32 noundef %5)
  ret i32 %6
}

; Function Attrs: nounwind uwtable
define i32 @EVP_PKEY_can_sign(ptr noundef %0) #0 {
  %2 = alloca i32, align 4
  %3 = alloca ptr, align 8
  %4 = alloca ptr, align 8
  %5 = alloca ptr, align 8
  %6 = alloca ptr, align 8
  %7 = alloca ptr, align 8
  %8 = alloca i32, align 4
  store ptr %0, ptr %3, align 8, !tbaa !3
  %9 = load ptr, ptr %3, align 8, !tbaa !3
  %10 = getelementptr inbounds nuw %struct.evp_pkey_st, ptr %9, i32 0, i32 13
  %11 = load ptr, ptr %10, align 8, !tbaa !32
  %12 = icmp eq ptr %11, null
  br i1 %12, label %13, label %26

13:                                               ; preds = %1
  %14 = load ptr, ptr %3, align 8, !tbaa !3
  %15 = call i32 @EVP_PKEY_get_base_id(ptr noundef %14)
  switch i32 %15, label %24 [
    i32 6, label %16
    i32 912, label %16
    i32 116, label %17
    i32 1087, label %18
    i32 1088, label %18
    i32 408, label %19
  ]

16:                                               ; preds = %13, %13
  store i32 1, ptr %2, align 4
  br label %65

17:                                               ; preds = %13
  store i32 1, ptr %2, align 4
  br label %65

18:                                               ; preds = %13, %13
  store i32 1, ptr %2, align 4
  br label %65

19:                                               ; preds = %13
  %20 = load ptr, ptr %3, align 8, !tbaa !3
  %21 = getelementptr inbounds nuw %struct.evp_pkey_st, ptr %20, i32 0, i32 5
  %22 = load ptr, ptr %21, align 8, !tbaa !38
  %23 = call i32 @EC_KEY_can_sign(ptr noundef %22)
  store i32 %23, ptr %2, align 4
  br label %65

24:                                               ; preds = %13
  br label %25

25:                                               ; preds = %24
  br label %64

26:                                               ; preds = %1
  call void @llvm.lifetime.start.p0(i64 8, ptr %4) #8
  %27 = load ptr, ptr %3, align 8, !tbaa !3
  %28 = getelementptr inbounds nuw %struct.evp_pkey_st, ptr %27, i32 0, i32 13
  %29 = load ptr, ptr %28, align 8, !tbaa !32
  %30 = call ptr @EVP_KEYMGMT_get0_provider(ptr noundef %29)
  store ptr %30, ptr %4, align 8, !tbaa !114
  call void @llvm.lifetime.start.p0(i64 8, ptr %5) #8
  %31 = load ptr, ptr %4, align 8, !tbaa !114
  %32 = call ptr @ossl_provider_libctx(ptr noundef %31)
  store ptr %32, ptr %5, align 8, !tbaa !44
  call void @llvm.lifetime.start.p0(i64 8, ptr %6) #8
  %33 = load ptr, ptr %3, align 8, !tbaa !3
  %34 = getelementptr inbounds nuw %struct.evp_pkey_st, ptr %33, i32 0, i32 13
  %35 = load ptr, ptr %34, align 8, !tbaa !32
  %36 = getelementptr inbounds nuw %struct.evp_keymgmt_st, ptr %35, i32 0, i32 22
  %37 = load ptr, ptr %36, align 8, !tbaa !115
  %38 = icmp ne ptr %37, null
  br i1 %38, label %39, label %46

39:                                               ; preds = %26
  %40 = load ptr, ptr %3, align 8, !tbaa !3
  %41 = getelementptr inbounds nuw %struct.evp_pkey_st, ptr %40, i32 0, i32 13
  %42 = load ptr, ptr %41, align 8, !tbaa !32
  %43 = getelementptr inbounds nuw %struct.evp_keymgmt_st, ptr %42, i32 0, i32 22
  %44 = load ptr, ptr %43, align 8, !tbaa !115
  %45 = call ptr %44(i32 noundef 12)
  br label %51

46:                                               ; preds = %26
  %47 = load ptr, ptr %3, align 8, !tbaa !3
  %48 = getelementptr inbounds nuw %struct.evp_pkey_st, ptr %47, i32 0, i32 13
  %49 = load ptr, ptr %48, align 8, !tbaa !32
  %50 = call ptr @EVP_KEYMGMT_get0_name(ptr noundef %49)
  br label %51

51:                                               ; preds = %46, %39
  %52 = phi ptr [ %45, %39 ], [ %50, %46 ]
  store ptr %52, ptr %6, align 8, !tbaa !39
  call void @llvm.lifetime.start.p0(i64 8, ptr %7) #8
  store ptr null, ptr %7, align 8, !tbaa !116
  %53 = load ptr, ptr %5, align 8, !tbaa !44
  %54 = load ptr, ptr %6, align 8, !tbaa !39
  %55 = call ptr @EVP_SIGNATURE_fetch(ptr noundef %53, ptr noundef %54, ptr noundef null)
  store ptr %55, ptr %7, align 8, !tbaa !116
  %56 = load ptr, ptr %7, align 8, !tbaa !116
  %57 = icmp ne ptr %56, null
  br i1 %57, label %58, label %60

58:                                               ; preds = %51
  %59 = load ptr, ptr %7, align 8, !tbaa !116
  call void @EVP_SIGNATURE_free(ptr noundef %59)
  store i32 1, ptr %2, align 4
  store i32 1, ptr %8, align 4
  br label %61

60:                                               ; preds = %51
  store i32 0, ptr %8, align 4
  br label %61

61:                                               ; preds = %60, %58
  call void @llvm.lifetime.end.p0(i64 8, ptr %7) #8
  call void @llvm.lifetime.end.p0(i64 8, ptr %6) #8
  call void @llvm.lifetime.end.p0(i64 8, ptr %5) #8
  call void @llvm.lifetime.end.p0(i64 8, ptr %4) #8
  %62 = load i32, ptr %8, align 4
  switch i32 %62, label %67 [
    i32 0, label %63
    i32 1, label %65
  ]

63:                                               ; preds = %61
  br label %64

64:                                               ; preds = %63, %25
  store i32 0, ptr %2, align 4
  br label %65

65:                                               ; preds = %64, %61, %19, %18, %17, %16
  %66 = load i32, ptr %2, align 4
  ret i32 %66

67:                                               ; preds = %61
  unreachable
}