; Function Attrs: nounwind uwtable
define i32 @EVP_PKEY_can_sign(ptr noundef readonly captures(none) %0) local_unnamed_addr #0 {
  %2 = alloca ptr, align 8
  %3 = getelementptr inbounds nuw i8, ptr %0, i64 96
  %4 = load ptr, ptr %3, align 8, !tbaa !30
  %5 = icmp eq ptr %4, null
  br i1 %5, label %6, label %18

6:                                                ; preds = %1
  %7 = load i32, ptr %0, align 8, !tbaa !26
  call void @llvm.lifetime.start.p0(i64 8, ptr nonnull %2) #12
  %8 = call ptr @EVP_PKEY_asn1_find(ptr noundef nonnull %2, i32 noundef %7) #12
  %.not.i.i = icmp eq ptr %8, null
  br i1 %.not.i.i, label %EVP_PKEY_get_base_id.exit.thread, label %EVP_PKEY_get_base_id.exit

EVP_PKEY_get_base_id.exit.thread:                 ; preds = %6
  %9 = load ptr, ptr %2, align 8, !tbaa !61
  %10 = call i32 @ENGINE_finish(ptr noundef %9) #12
  call void @llvm.lifetime.end.p0(i64 8, ptr nonnull %2) #12
  br label %.thread

EVP_PKEY_get_base_id.exit:                        ; preds = %6
  %11 = load i32, ptr %8, align 8, !tbaa !80
  %12 = load ptr, ptr %2, align 8, !tbaa !61
  %13 = call i32 @ENGINE_finish(ptr noundef %12) #12
  call void @llvm.lifetime.end.p0(i64 8, ptr nonnull %2) #12
  switch i32 %11, label %.thread [
    i32 6, label %32
    i32 912, label %32
    i32 116, label %32
    i32 1087, label %32
    i32 1088, label %32
    i32 408, label %14
  ]

14:                                               ; preds = %EVP_PKEY_get_base_id.exit
  %15 = getelementptr inbounds nuw i8, ptr %0, i64 32
  %16 = load ptr, ptr %15, align 8, !tbaa !39
  %17 = call i32 @EC_KEY_can_sign(ptr noundef %16) #12
  br label %32

18:                                               ; preds = %1
  %19 = tail call ptr @EVP_KEYMGMT_get0_provider(ptr noundef nonnull %4) #12
  %20 = tail call ptr @ossl_provider_libctx(ptr noundef %19) #12
  %21 = load ptr, ptr %3, align 8, !tbaa !30
  %22 = getelementptr inbounds nuw i8, ptr %21, i64 168
  %23 = load ptr, ptr %22, align 8, !tbaa !90
  %.not = icmp eq ptr %23, null
  br i1 %.not, label %26, label %24

24:                                               ; preds = %18
  %25 = tail call ptr %23(i32 noundef 12) #12
  br label %28

26:                                               ; preds = %18
  %27 = tail call ptr @EVP_KEYMGMT_get0_name(ptr noundef nonnull %21) #12
  br label %28

28:                                               ; preds = %26, %24
  %29 = phi ptr [ %25, %24 ], [ %27, %26 ]
  %30 = tail call ptr @EVP_SIGNATURE_fetch(ptr noundef %20, ptr noundef %29, ptr noundef null) #12
  %.not17.not = icmp eq ptr %30, null
  br i1 %.not17.not, label %.thread, label %31

31:                                               ; preds = %28
  tail call void @EVP_SIGNATURE_free(ptr noundef nonnull %30) #12
  br label %32

.thread:                                          ; preds = %28, %EVP_PKEY_get_base_id.exit.thread, %EVP_PKEY_get_base_id.exit
  br label %32

32:                                               ; preds = %31, %EVP_PKEY_get_base_id.exit, %EVP_PKEY_get_base_id.exit, %EVP_PKEY_get_base_id.exit, %EVP_PKEY_get_base_id.exit, %EVP_PKEY_get_base_id.exit, %.thread, %14
  %.013 = phi i32 [ 0, %.thread ], [ %17, %14 ], [ 1, %31 ], [ 1, %EVP_PKEY_get_base_id.exit ], [ 1, %EVP_PKEY_get_base_id.exit ], [ 1, %EVP_PKEY_get_base_id.exit ], [ 1, %EVP_PKEY_get_base_id.exit ], [ 1, %EVP_PKEY_get_base_id.exit ]
  ret i32 %.013
}